
ADC_RMS.elf:     file format elf32-avr

Sections:
Idx Name          Size      VMA       LMA       File off  Algn
  0 .text         000002b4  00000000  00000000  00000094  2**1
                  CONTENTS, ALLOC, LOAD, READONLY, CODE
  1 .data         00000000  00800060  000002b4  00000348  2**0
                  CONTENTS, ALLOC, LOAD, DATA
  2 .bss          00000028  00800060  00800060  00000348  2**0
                  ALLOC
  3 .stab         000006b4  00000000  00000000  00000348  2**2
                  CONTENTS, READONLY, DEBUGGING
  4 .stabstr      00000085  00000000  00000000  000009fc  2**0
                  CONTENTS, READONLY, DEBUGGING
  5 .debug_aranges 000000a0  00000000  00000000  00000a88  2**3
                  CONTENTS, READONLY, DEBUGGING
  6 .debug_info   000005de  00000000  00000000  00000b28  2**0
                  CONTENTS, READONLY, DEBUGGING
  7 .debug_abbrev 000001f1  00000000  00000000  00001106  2**0
                  CONTENTS, READONLY, DEBUGGING
  8 .debug_line   00000408  00000000  00000000  000012f7  2**0
                  CONTENTS, READONLY, DEBUGGING
  9 .debug_frame  00000100  00000000  00000000  00001700  2**2
                  CONTENTS, READONLY, DEBUGGING
 10 .debug_str    00000297  00000000  00000000  00001800  2**0
                  CONTENTS, READONLY, DEBUGGING
 11 .debug_loc    000001ab  00000000  00000000  00001a97  2**0
                  CONTENTS, READONLY, DEBUGGING

Disassembly of section .text:

00000000 <__vectors>:
   0:	0e c0       	rjmp	.+28     	; 0x1e <__ctors_end>
   2:	26 c0       	rjmp	.+76     	; 0x50 <__bad_interrupt>
   4:	25 c0       	rjmp	.+74     	; 0x50 <__bad_interrupt>
   6:	24 c0       	rjmp	.+72     	; 0x50 <__bad_interrupt>
   8:	23 c0       	rjmp	.+70     	; 0x50 <__bad_interrupt>
   a:	22 c0       	rjmp	.+68     	; 0x50 <__bad_interrupt>
   c:	21 c0       	rjmp	.+66     	; 0x50 <__bad_interrupt>
   e:	20 c0       	rjmp	.+64     	; 0x50 <__bad_interrupt>
  10:	1f c0       	rjmp	.+62     	; 0x50 <__bad_interrupt>
  12:	1e c0       	rjmp	.+60     	; 0x50 <__bad_interrupt>
  14:	1d c0       	rjmp	.+58     	; 0x50 <__bad_interrupt>
  16:	1c c0       	rjmp	.+56     	; 0x50 <__bad_interrupt>
  18:	1b c0       	rjmp	.+54     	; 0x50 <__bad_interrupt>
  1a:	87 c0       	rjmp	.+270    	; 0x12a <__vector_13>
  1c:	a2 c0       	rjmp	.+324    	; 0x162 <__vector_14>

0000001e <__ctors_end>:
  1e:	11 24       	eor	r1, r1
  20:	1f be       	out	0x3f, r1	; 63
  22:	cf ed       	ldi	r28, 0xDF	; 223
  24:	cd bf       	out	0x3d, r28	; 61

00000026 <__do_copy_data>:
  26:	10 e0       	ldi	r17, 0x00	; 0
  28:	a0 e6       	ldi	r26, 0x60	; 96
  2a:	b0 e0       	ldi	r27, 0x00	; 0
  2c:	e4 eb       	ldi	r30, 0xB4	; 180
  2e:	f2 e0       	ldi	r31, 0x02	; 2
  30:	02 c0       	rjmp	.+4      	; 0x36 <__CCP__+0x2>
  32:	05 90       	lpm	r0, Z+
  34:	0d 92       	st	X+, r0
  36:	a0 36       	cpi	r26, 0x60	; 96
  38:	b1 07       	cpc	r27, r17
  3a:	d9 f7       	brne	.-10     	; 0x32 <__do_copy_data+0xc>

0000003c <__do_clear_bss>:
  3c:	10 e0       	ldi	r17, 0x00	; 0
  3e:	a0 e6       	ldi	r26, 0x60	; 96
  40:	b0 e0       	ldi	r27, 0x00	; 0
  42:	01 c0       	rjmp	.+2      	; 0x46 <.do_clear_bss_start>

00000044 <.do_clear_bss_loop>:
  44:	1d 92       	st	X+, r1

00000046 <.do_clear_bss_start>:
  46:	a8 38       	cpi	r26, 0x88	; 136
  48:	b1 07       	cpc	r27, r17
  4a:	e1 f7       	brne	.-8      	; 0x44 <.do_clear_bss_loop>
  4c:	02 d0       	rcall	.+4      	; 0x52 <main>
  4e:	30 c1       	rjmp	.+608    	; 0x2b0 <_exit>

00000050 <__bad_interrupt>:
  50:	d7 cf       	rjmp	.-82     	; 0x0 <__vectors>

00000052 <main>:
	uint8_t count = 0;
	uint8_t adc_val = 0; // Change to uint16_t to use 10 bits of ADC data
	uint16_t led_counter = 0;
	
	// Setup AVR
	DDRB |= (1<<PB1);							// Set debugging LED output pin
  52:	b9 9a       	sbi	0x17, 1	; 23
	
	// Setup ADC
	// Set ADC Mux
	ADMUX = (0<<REFS2)|(0<<REFS1)|(0<<REFS0)|	// Use VCC as Vref, disconnected from AREF pin (which is in use as SDA for TWI)
  54:	82 e2       	ldi	r24, 0x22	; 34
  56:	87 b9       	out	0x07, r24	; 7
			(1<<ADLAR)|							// Left-shift the ADC result, so the first 8 bits can be read from a single register (ADCH)
//			(0<<MUX3)|(1<<MUX2)|(1<<MUX1)|(0<<MUX0);	// Use difference between PB4 and PB3, with gain of 1x. Use 0111 for 20x gain
			(0<<MUX3)|(0<<MUX2)|(1<<MUX1)|(0<<MUX0);	// Read ADC2 (PB4)
	// Set ADC Control Register A
	ADCSRA = (1<<ADEN)|							// Enable ADC
  58:	86 e8       	ldi	r24, 0x86	; 134
  5a:	86 b9       	out	0x06, r24	; 6
			(0<<ADSC)|							// Don't start conversion yet
			(0<<ADATE)|							// Disable triggering //so Free Running mode can be set
			(0<<ADIF)|(0<<ADIE)|				// Don't use the ADC interrupt
			(1<<ADPS2)|(1<<ADPS1)|(0<<ADPS0);	// Set the clock prescaler to 64, so the 8MHz CPU clock gets scaled to 125kHz
	// Set ADC Control Register B
	ADCSRB |= (1<<BIN)|							// Enable bipolar input mode, so we can measure positive and negative voltages (for AC)
  5c:	1f 9a       	sbi	0x03, 7	; 3
			(0<<ACME)|							// Disable analog comparator
			(0<<IPR)|							// Don't enable polarity reversal. It doesn't do us any good
			(0<<ADTS2)|(0<<ADTS1)|(0<<ADTS0);	// Set ADC to free running mode, so it continually samples
	// Disable digital pins being used by ADC
	DIDR0 |= (1<<ADC3D)|(1<<ADC2D)|				// Disable digital pins being used by ADC
  5e:	84 b3       	in	r24, 0x14	; 20
  60:	88 61       	ori	r24, 0x18	; 24
  62:	84 bb       	out	0x14, r24	; 20
			(0<<ADC1D)|(0<<ADC0D);				// Leave enabled pins being used for digital
	
	// Setup I2C (TWI)
	usiTwiSlaveInit( (uint8_t)TWI_ADDRESS );
  64:	8a e2       	ldi	r24, 0x2A	; 42
  66:	16 d0       	rcall	.+44     	; 0x94 <usiTwiSlaveInit>
	sei();
  68:	78 94       	sei
	
	// Start ADC conversion
	ADCSRA = ADCSRA | (1<<ADSC);
  6a:	36 9a       	sbi	0x06, 6	; 6
int main(void)
{
	// Setup variables
	uint8_t count = 0;
	uint8_t adc_val = 0; // Change to uint16_t to use 10 bits of ADC data
	uint16_t led_counter = 0;
  6c:	c0 e0       	ldi	r28, 0x00	; 0
  6e:	d0 e0       	ldi	r29, 0x00	; 0
  70:	01 c0       	rjmp	.+2      	; 0x74 <main+0x22>
			count++;
		}
		
		// Toggle LED heartbeat
		if(adc_val < 64){
			if(led_counter++ == 0){
  72:	ec 01       	movw	r28, r24
	
    while(1)
    {
        // Read ADC
//		adc_val = ADCH << 8 | ADCL;	// Removed to only send one byte
		adc_val = ADCH;
  74:	15 b1       	in	r17, 0x05	; 5
		ADCSRA = ADCSRA | (1<<ADSC);		// Re-enable for next conversion to happen
  76:	36 9a       	sbi	0x06, 6	; 6
			// Transmit count for testing
			//usiTwiTransmitByte(count);
			count++;
		}
		*/
		if(usiTwiDataInTransmitBuffer() == false){
  78:	22 d0       	rcall	.+68     	; 0xbe <usiTwiDataInTransmitBuffer>
  7a:	88 23       	and	r24, r24
  7c:	11 f4       	brne	.+4      	; 0x82 <main+0x30>
			// Transmit ADC value
//			usiTwiTransmitByte((uint8_t)(adc_val >> 8)); // Removed to only send one byte
			usiTwiTransmitByte((uint8_t)adc_val);
  7e:	81 2f       	mov	r24, r17
  80:	27 d0       	rcall	.+78     	; 0xd0 <usiTwiTransmitByte>
			count++;
		}
		
		// Toggle LED heartbeat
		if(adc_val < 64){
  82:	10 34       	cpi	r17, 0x40	; 64
  84:	b8 f7       	brcc	.-18     	; 0x74 <main+0x22>
			if(led_counter++ == 0){
  86:	ce 01       	movw	r24, r28
  88:	01 96       	adiw	r24, 0x01	; 1
  8a:	20 97       	sbiw	r28, 0x00	; 0
  8c:	91 f7       	brne	.-28     	; 0x72 <main+0x20>
				LED_TOGGLE();
  8e:	b1 9a       	sbi	0x16, 1	; 22
			count++;
		}
		
		// Toggle LED heartbeat
		if(adc_val < 64){
			if(led_counter++ == 0){
  90:	ec 01       	movw	r28, r24
  92:	f0 cf       	rjmp	.-32     	; 0x74 <main+0x22>

00000094 <usiTwiSlaveInit>:
void
flushTwiBuffers(
  void
)
{
  rxTail = 0;
  94:	10 92 62 00 	sts	0x0062, r1
  rxHead = 0;
  98:	10 92 63 00 	sts	0x0063, r1
  txTail = 0;
  9c:	10 92 60 00 	sts	0x0060, r1
  txHead = 0;
  a0:	10 92 61 00 	sts	0x0061, r1
)
{

  flushTwiBuffers( );

  slaveAddress = ownAddress;
  a4:	80 93 65 00 	sts	0x0065, r24
  // low when a start condition is detected or a counter overflow (only
  // for USIWM1, USIWM0 = 11).  This inserts a wait state.  SCL is released
  // by the ISRs (USI_START_vect and USI_OVERFLOW_vect).

  // Set SCL and SDA as output
  DDR_USI |= ( 1 << PORT_USI_SCL ) | ( 1 << PORT_USI_SDA );
  a8:	87 b3       	in	r24, 0x17	; 23
  aa:	85 60       	ori	r24, 0x05	; 5
  ac:	87 bb       	out	0x17, r24	; 23

  // set SCL high
  PORT_USI |= ( 1 << PORT_USI_SCL );
  ae:	c2 9a       	sbi	0x18, 2	; 24

  // set SDA high
  PORT_USI |= ( 1 << PORT_USI_SDA );
  b0:	c0 9a       	sbi	0x18, 0	; 24

  // Set SDA as input
  DDR_USI &= ~( 1 << PORT_USI_SDA );
  b2:	b8 98       	cbi	0x17, 0	; 23

  USICR =
  b4:	88 ea       	ldi	r24, 0xA8	; 168
  b6:	8d b9       	out	0x0d, r24	; 13
       // no toggle clock-port pin
       ( 0 << USITC );

  // clear all interrupt flags and reset overflow counter

  USISR = ( 1 << USI_START_COND_INT ) | ( 1 << USIOIF ) | ( 1 << USIPF ) | ( 1 << USIDC );
  b8:	80 ef       	ldi	r24, 0xF0	; 240
  ba:	8e b9       	out	0x0e, r24	; 14

} // end usiTwiSlaveInit
  bc:	08 95       	ret

000000be <usiTwiDataInTransmitBuffer>:

bool usiTwiDataInTransmitBuffer(void)
{

  // return 0 (false) if the receive buffer is empty
  return txHead != txTail;
  be:	20 91 61 00 	lds	r18, 0x0061
  c2:	90 91 60 00 	lds	r25, 0x0060
  c6:	81 e0       	ldi	r24, 0x01	; 1
  c8:	29 17       	cp	r18, r25
  ca:	09 f4       	brne	.+2      	; 0xce <usiTwiDataInTransmitBuffer+0x10>
  cc:	80 e0       	ldi	r24, 0x00	; 0

} // end usiTwiDataInTransmitBuffer
  ce:	08 95       	ret

000000d0 <usiTwiTransmitByte>:
{

  uint8_t tmphead;

  // calculate buffer index
  tmphead = ( txHead + 1 ) & TWI_TX_BUFFER_MASK;
  d0:	20 91 61 00 	lds	r18, 0x0061
  d4:	2f 5f       	subi	r18, 0xFF	; 255
  d6:	2f 70       	andi	r18, 0x0F	; 15

  // wait for free space in buffer
  while ( tmphead == txTail );
  d8:	90 91 60 00 	lds	r25, 0x0060
  dc:	29 17       	cp	r18, r25
  de:	e1 f3       	breq	.-8      	; 0xd8 <usiTwiTransmitByte+0x8>

  // store data in buffer
  txBuf[ tmphead ] = data;
  e0:	e6 e6       	ldi	r30, 0x66	; 102
  e2:	f0 e0       	ldi	r31, 0x00	; 0
  e4:	e2 0f       	add	r30, r18
  e6:	f1 1d       	adc	r31, r1
  e8:	80 83       	st	Z, r24

  // store new index
  txHead = tmphead;
  ea:	20 93 61 00 	sts	0x0061, r18

} // end usiTwiTransmitByte
  ee:	08 95       	ret

000000f0 <usiTwiReceiveByte>:
  void
)
{

  // wait for Rx data
  while ( rxHead == rxTail );
  f0:	90 91 63 00 	lds	r25, 0x0063
  f4:	80 91 62 00 	lds	r24, 0x0062
  f8:	98 17       	cp	r25, r24
  fa:	d1 f3       	breq	.-12     	; 0xf0 <usiTwiReceiveByte>

  // calculate buffer index
  rxTail = ( rxTail + 1 ) & TWI_RX_BUFFER_MASK;
  fc:	80 91 62 00 	lds	r24, 0x0062
 100:	8f 5f       	subi	r24, 0xFF	; 255
 102:	8f 70       	andi	r24, 0x0F	; 15
 104:	80 93 62 00 	sts	0x0062, r24

  // return data from the buffer.
  return rxBuf[ rxTail ];
 108:	80 91 62 00 	lds	r24, 0x0062
 10c:	e6 e7       	ldi	r30, 0x76	; 118
 10e:	f0 e0       	ldi	r31, 0x00	; 0
 110:	e8 0f       	add	r30, r24
 112:	f1 1d       	adc	r31, r1

} // end usiTwiReceiveByte
 114:	80 81       	ld	r24, Z
 116:	08 95       	ret

00000118 <usiTwiDataInReceiveBuffer>:
  void
)
{

  // return 0 (false) if the receive buffer is empty
  return rxHead != rxTail;
 118:	20 91 63 00 	lds	r18, 0x0063
 11c:	90 91 62 00 	lds	r25, 0x0062
 120:	81 e0       	ldi	r24, 0x01	; 1
 122:	29 17       	cp	r18, r25
 124:	09 f4       	brne	.+2      	; 0x128 <usiTwiDataInReceiveBuffer+0x10>
 126:	80 e0       	ldi	r24, 0x00	; 0

} // end usiTwiDataInReceiveBuffer
 128:	08 95       	ret

0000012a <__vector_13>:
                            USI Start Condition ISR

********************************************************************************/

ISR( USI_START_VECTOR )
{
 12a:	1f 92       	push	r1
 12c:	0f 92       	push	r0
 12e:	0f b6       	in	r0, 0x3f	; 63
 130:	0f 92       	push	r0
 132:	11 24       	eor	r1, r1
 134:	8f 93       	push	r24

  // set default starting conditions for new TWI package
  overflowState = USI_SLAVE_CHECK_ADDRESS;
 136:	10 92 64 00 	sts	0x0064, r1

  // set SDA as input
  DDR_USI &= ~( 1 << PORT_USI_SDA );
 13a:	b8 98       	cbi	0x17, 0	; 23
  // wait for SCL to go low to ensure the Start Condition has completed (the
  // start detector will hold SCL low ) - if a Stop Condition arises then leave
  // the interrupt to prevent waiting forever - don't use USISR to test for Stop
  // Condition as in Application Note AVR312 because the Stop Condition Flag is
  // going to be set from the last TWI sequence
  while (
 13c:	b2 9b       	sbis	0x16, 2	; 22
 13e:	02 c0       	rjmp	.+4      	; 0x144 <__vector_13+0x1a>
       // SCL his high
       ( PIN_USI & ( 1 << PIN_USI_SCL ) ) &&
 140:	b0 9b       	sbis	0x16, 0	; 22
 142:	fc cf       	rjmp	.-8      	; 0x13c <__vector_13+0x12>
       // and SDA is low
       !( ( PIN_USI & ( 1 << PIN_USI_SDA ) ) )
  );


  if ( !( PIN_USI & ( 1 << PIN_USI_SDA ) ) )
 144:	b0 99       	sbic	0x16, 0	; 22
 146:	03 c0       	rjmp	.+6      	; 0x14e <__vector_13+0x24>
  {

    // a Stop Condition did not occur

    USICR =
 148:	88 ef       	ldi	r24, 0xF8	; 248
 14a:	8d b9       	out	0x0d, r24	; 13
 14c:	02 c0       	rjmp	.+4      	; 0x152 <__vector_13+0x28>
  }
  else
  {

    // a Stop Condition did occur
    USICR =
 14e:	88 ea       	ldi	r24, 0xA8	; 168
 150:	8d b9       	out	0x0d, r24	; 13
         // no toggle clock-port pin
         ( 0 << USITC );

  } // end if

  USISR =
 152:	80 ef       	ldi	r24, 0xF0	; 240
 154:	8e b9       	out	0x0e, r24	; 14
       ( 1 << USI_START_COND_INT ) | ( 1 << USIOIF ) |
       ( 1 << USIPF ) |( 1 << USIDC ) |
       // set USI to sample 8 bits (count 16 external SCL pin toggles)
       ( 0x0 << USICNT0);

} // end ISR( USI_START_VECTOR )
 156:	8f 91       	pop	r24
 158:	0f 90       	pop	r0
 15a:	0f be       	out	0x3f, r0	; 63
 15c:	0f 90       	pop	r0
 15e:	1f 90       	pop	r1
 160:	18 95       	reti

00000162 <__vector_14>:
Only disabled when waiting for a new Start Condition.

********************************************************************************/

ISR( USI_OVERFLOW_VECTOR )
{
 162:	1f 92       	push	r1
 164:	0f 92       	push	r0
 166:	0f b6       	in	r0, 0x3f	; 63
 168:	0f 92       	push	r0
 16a:	11 24       	eor	r1, r1
 16c:	2f 93       	push	r18
 16e:	3f 93       	push	r19
 170:	4f 93       	push	r20
 172:	5f 93       	push	r21
 174:	6f 93       	push	r22
 176:	7f 93       	push	r23
 178:	8f 93       	push	r24
 17a:	9f 93       	push	r25
 17c:	af 93       	push	r26
 17e:	bf 93       	push	r27
 180:	ef 93       	push	r30
 182:	ff 93       	push	r31

  switch ( overflowState )
 184:	80 91 64 00 	lds	r24, 0x0064
 188:	82 30       	cpi	r24, 0x02	; 2
 18a:	09 f4       	brne	.+2      	; 0x18e <__vector_14+0x2c>
 18c:	5c c0       	rjmp	.+184    	; 0x246 <__vector_14+0xe4>
 18e:	83 30       	cpi	r24, 0x03	; 3
 190:	30 f4       	brcc	.+12     	; 0x19e <__vector_14+0x3c>
 192:	88 23       	and	r24, r24
 194:	69 f0       	breq	.+26     	; 0x1b0 <__vector_14+0x4e>
 196:	81 30       	cpi	r24, 0x01	; 1
 198:	09 f0       	breq	.+2      	; 0x19c <__vector_14+0x3a>
 19a:	79 c0       	rjmp	.+242    	; 0x28e <__vector_14+0x12c>
 19c:	34 c0       	rjmp	.+104    	; 0x206 <__vector_14+0xa4>
 19e:	84 30       	cpi	r24, 0x04	; 4
 1a0:	09 f4       	brne	.+2      	; 0x1a4 <__vector_14+0x42>
 1a2:	59 c0       	rjmp	.+178    	; 0x256 <__vector_14+0xf4>
 1a4:	84 30       	cpi	r24, 0x04	; 4
 1a6:	38 f1       	brcs	.+78     	; 0x1f6 <__vector_14+0x94>
 1a8:	85 30       	cpi	r24, 0x05	; 5
 1aa:	09 f0       	breq	.+2      	; 0x1ae <__vector_14+0x4c>
 1ac:	70 c0       	rjmp	.+224    	; 0x28e <__vector_14+0x12c>
 1ae:	5a c0       	rjmp	.+180    	; 0x264 <__vector_14+0x102>
  {

    // Address mode: check address and send ACK (and next USI_SLAVE_SEND_DATA) if OK,
    // else reset USI
    case USI_SLAVE_CHECK_ADDRESS:
      if ( ( USIDR == 0 ) || ( ( USIDR >> 1 ) == slaveAddress) )
 1b0:	8f b1       	in	r24, 0x0f	; 15
 1b2:	88 23       	and	r24, r24
 1b4:	31 f0       	breq	.+12     	; 0x1c2 <__vector_14+0x60>
 1b6:	9f b1       	in	r25, 0x0f	; 15
 1b8:	96 95       	lsr	r25
 1ba:	80 91 65 00 	lds	r24, 0x0065
 1be:	98 17       	cp	r25, r24
 1c0:	a9 f4       	brne	.+42     	; 0x1ec <__vector_14+0x8a>
      {
         // callback
         if(_onTwiDataRequest) _onTwiDataRequest();
 1c2:	e0 91 86 00 	lds	r30, 0x0086
 1c6:	f0 91 87 00 	lds	r31, 0x0087
 1ca:	30 97       	sbiw	r30, 0x00	; 0
 1cc:	09 f0       	breq	.+2      	; 0x1d0 <__vector_14+0x6e>
 1ce:	09 95       	icall
         if ( USIDR & 0x01 )
 1d0:	78 9b       	sbis	0x0f, 0	; 15
 1d2:	04 c0       	rjmp	.+8      	; 0x1dc <__vector_14+0x7a>
        {
          overflowState = USI_SLAVE_SEND_DATA;
 1d4:	81 e0       	ldi	r24, 0x01	; 1
 1d6:	80 93 64 00 	sts	0x0064, r24
 1da:	03 c0       	rjmp	.+6      	; 0x1e2 <__vector_14+0x80>
        }
        else
        {
          overflowState = USI_SLAVE_REQUEST_DATA;
 1dc:	84 e0       	ldi	r24, 0x04	; 4
 1de:	80 93 64 00 	sts	0x0064, r24
        } // end if
        SET_USI_TO_SEND_ACK( );
 1e2:	1f b8       	out	0x0f, r1	; 15
 1e4:	b8 9a       	sbi	0x17, 0	; 23
 1e6:	8e e7       	ldi	r24, 0x7E	; 126
 1e8:	8e b9       	out	0x0e, r24	; 14
 1ea:	51 c0       	rjmp	.+162    	; 0x28e <__vector_14+0x12c>
      }
      else
      {
        SET_USI_TO_TWI_START_CONDITION_MODE( );
 1ec:	88 ea       	ldi	r24, 0xA8	; 168
 1ee:	8d b9       	out	0x0d, r24	; 13
 1f0:	80 e7       	ldi	r24, 0x70	; 112
 1f2:	8e b9       	out	0x0e, r24	; 14
 1f4:	4c c0       	rjmp	.+152    	; 0x28e <__vector_14+0x12c>
      break;

    // Master write data mode: check reply and goto USI_SLAVE_SEND_DATA if OK,
    // else reset USI
    case USI_SLAVE_CHECK_REPLY_FROM_SEND_DATA:
      if ( USIDR )
 1f6:	8f b1       	in	r24, 0x0f	; 15
 1f8:	88 23       	and	r24, r24
 1fa:	29 f0       	breq	.+10     	; 0x206 <__vector_14+0xa4>
      {
        // if NACK, the master does not want more data
        SET_USI_TO_TWI_START_CONDITION_MODE( );
 1fc:	88 ea       	ldi	r24, 0xA8	; 168
 1fe:	8d b9       	out	0x0d, r24	; 13
 200:	80 e7       	ldi	r24, 0x70	; 112
 202:	8e b9       	out	0x0e, r24	; 14
        return;
 204:	44 c0       	rjmp	.+136    	; 0x28e <__vector_14+0x12c>

    // copy data from buffer to USIDR and set USI to shift byte
    // next USI_SLAVE_REQUEST_REPLY_FROM_SEND_DATA
    case USI_SLAVE_SEND_DATA:
      // Get data from Buffer
      if ( txHead != txTail )
 206:	90 91 61 00 	lds	r25, 0x0061
 20a:	80 91 60 00 	lds	r24, 0x0060
 20e:	98 17       	cp	r25, r24
 210:	a9 f0       	breq	.+42     	; 0x23c <__vector_14+0xda>
      {
        txTail = ( txTail + 1 ) & TWI_TX_BUFFER_MASK;
 212:	80 91 60 00 	lds	r24, 0x0060
 216:	8f 5f       	subi	r24, 0xFF	; 255
 218:	8f 70       	andi	r24, 0x0F	; 15
 21a:	80 93 60 00 	sts	0x0060, r24
        USIDR = txBuf[ txTail ];
 21e:	80 91 60 00 	lds	r24, 0x0060
 222:	e6 e6       	ldi	r30, 0x66	; 102
 224:	f0 e0       	ldi	r31, 0x00	; 0
 226:	e8 0f       	add	r30, r24
 228:	f1 1d       	adc	r31, r1
 22a:	80 81       	ld	r24, Z
 22c:	8f b9       	out	0x0f, r24	; 15
      {
        // the buffer is empty
        SET_USI_TO_TWI_START_CONDITION_MODE( );
        return;
      } // end if
      overflowState = USI_SLAVE_REQUEST_REPLY_FROM_SEND_DATA;
 22e:	82 e0       	ldi	r24, 0x02	; 2
 230:	80 93 64 00 	sts	0x0064, r24
      SET_USI_TO_SEND_DATA( );
 234:	b8 9a       	sbi	0x17, 0	; 23
 236:	80 e7       	ldi	r24, 0x70	; 112
 238:	8e b9       	out	0x0e, r24	; 14
      break;
 23a:	29 c0       	rjmp	.+82     	; 0x28e <__vector_14+0x12c>
        USIDR = txBuf[ txTail ];
      }
      else
      {
        // the buffer is empty
        SET_USI_TO_TWI_START_CONDITION_MODE( );
 23c:	88 ea       	ldi	r24, 0xA8	; 168
 23e:	8d b9       	out	0x0d, r24	; 13
 240:	80 e7       	ldi	r24, 0x70	; 112
 242:	8e b9       	out	0x0e, r24	; 14
        return;
 244:	24 c0       	rjmp	.+72     	; 0x28e <__vector_14+0x12c>
      break;

    // set USI to sample reply from master
    // next USI_SLAVE_CHECK_REPLY_FROM_SEND_DATA
    case USI_SLAVE_REQUEST_REPLY_FROM_SEND_DATA:
      overflowState = USI_SLAVE_CHECK_REPLY_FROM_SEND_DATA;
 246:	83 e0       	ldi	r24, 0x03	; 3
 248:	80 93 64 00 	sts	0x0064, r24
      SET_USI_TO_READ_ACK( );
 24c:	b8 98       	cbi	0x17, 0	; 23
 24e:	1f b8       	out	0x0f, r1	; 15
 250:	8e e7       	ldi	r24, 0x7E	; 126
 252:	8e b9       	out	0x0e, r24	; 14
      break;
 254:	1c c0       	rjmp	.+56     	; 0x28e <__vector_14+0x12c>

    // Master read data mode: set USI to sample data from master, next
    // USI_SLAVE_GET_DATA_AND_SEND_ACK
    case USI_SLAVE_REQUEST_DATA:
      overflowState = USI_SLAVE_GET_DATA_AND_SEND_ACK;
 256:	85 e0       	ldi	r24, 0x05	; 5
 258:	80 93 64 00 	sts	0x0064, r24
      SET_USI_TO_READ_DATA( );
 25c:	b8 98       	cbi	0x17, 0	; 23
 25e:	80 e7       	ldi	r24, 0x70	; 112
 260:	8e b9       	out	0x0e, r24	; 14
      break;
 262:	15 c0       	rjmp	.+42     	; 0x28e <__vector_14+0x12c>
    // copy data from USIDR and send ACK
    // next USI_SLAVE_REQUEST_DATA
    case USI_SLAVE_GET_DATA_AND_SEND_ACK:
      // put data into buffer
      // Not necessary, but prevents warnings
      rxHead = ( rxHead + 1 ) & TWI_RX_BUFFER_MASK;
 264:	80 91 63 00 	lds	r24, 0x0063
 268:	8f 5f       	subi	r24, 0xFF	; 255
 26a:	8f 70       	andi	r24, 0x0F	; 15
 26c:	80 93 63 00 	sts	0x0063, r24
      rxBuf[ rxHead ] = USIDR;
 270:	90 91 63 00 	lds	r25, 0x0063
 274:	8f b1       	in	r24, 0x0f	; 15
 276:	e6 e7       	ldi	r30, 0x76	; 118
 278:	f0 e0       	ldi	r31, 0x00	; 0
 27a:	e9 0f       	add	r30, r25
 27c:	f1 1d       	adc	r31, r1
 27e:	80 83       	st	Z, r24
      // next USI_SLAVE_REQUEST_DATA
      overflowState = USI_SLAVE_REQUEST_DATA;
 280:	84 e0       	ldi	r24, 0x04	; 4
 282:	80 93 64 00 	sts	0x0064, r24
      SET_USI_TO_SEND_ACK( );
 286:	1f b8       	out	0x0f, r1	; 15
 288:	b8 9a       	sbi	0x17, 0	; 23
 28a:	8e e7       	ldi	r24, 0x7E	; 126
 28c:	8e b9       	out	0x0e, r24	; 14
      break;

  } // end switch

} // end ISR( USI_OVERFLOW_VECTOR )
 28e:	ff 91       	pop	r31
 290:	ef 91       	pop	r30
 292:	bf 91       	pop	r27
 294:	af 91       	pop	r26
 296:	9f 91       	pop	r25
 298:	8f 91       	pop	r24
 29a:	7f 91       	pop	r23
 29c:	6f 91       	pop	r22
 29e:	5f 91       	pop	r21
 2a0:	4f 91       	pop	r20
 2a2:	3f 91       	pop	r19
 2a4:	2f 91       	pop	r18
 2a6:	0f 90       	pop	r0
 2a8:	0f be       	out	0x3f, r0	; 63
 2aa:	0f 90       	pop	r0
 2ac:	1f 90       	pop	r1
 2ae:	18 95       	reti

000002b0 <_exit>:
 2b0:	f8 94       	cli

000002b2 <__stop_program>:
 2b2:	ff cf       	rjmp	.-2      	; 0x2b2 <__stop_program>
